; Function Attrs: mustprogress uwtable
define void @_ZN6colvar12alpha_angles14calc_gradientsEv(ptr noundef nonnull readonly align 8 captures(none) dereferenceable(1696) %0) unnamed_addr #2 align 2 {
  %2 = getelementptr inbounds nuw i8, ptr %0, i64 1624
  %3 = getelementptr inbounds nuw i8, ptr %0, i64 1632
  %4 = load ptr, ptr %3, align 8, !tbaa !146
  %5 = load ptr, ptr %2, align 8, !tbaa !150
  %.not = icmp eq ptr %4, %5
  br i1 %.not, label %.preheader, label %.lr.ph

.preheader:                                       ; preds = %.lr.ph, %1
  %6 = getelementptr inbounds nuw i8, ptr %0, i64 1648
  %7 = getelementptr inbounds nuw i8, ptr %0, i64 1656
  %8 = load ptr, ptr %7, align 8, !tbaa !160
  %9 = load ptr, ptr %6, align 8, !tbaa !164
  %.not9 = icmp eq ptr %8, %9
  br i1 %.not9, label %._crit_edge, label %.lr.ph8

.lr.ph:                                           ; preds = %1, %.lr.ph
  %10 = phi ptr [ %18, %.lr.ph ], [ %5, %1 ]
  %.06 = phi i64 [ %16, %.lr.ph ], [ 0, %1 ]
  %11 = getelementptr inbounds nuw ptr, ptr %10, i64 %.06
  %12 = load ptr, ptr %11, align 8, !tbaa !148
  %13 = load ptr, ptr %12, align 8, !tbaa !14
  %14 = getelementptr inbounds nuw i8, ptr %13, i64 120
  %15 = load ptr, ptr %14, align 8
  tail call void %15(ptr noundef nonnull align 8 dereferenceable(1745) %12)
  %16 = add nuw i64 %.06, 1
  %17 = load ptr, ptr %3, align 8, !tbaa !146
  %18 = load ptr, ptr %2, align 8, !tbaa !150
  %19 = ptrtoint ptr %17 to i64
  %20 = ptrtoint ptr %18 to i64
  %21 = sub i64 %19, %20
  %22 = ashr exact i64 %21, 3
  %23 = icmp ult i64 %16, %22
  br i1 %23, label %.lr.ph, label %.preheader, !llvm.loop !174

.lr.ph8:                                          ; preds = %.preheader, %.lr.ph8
  %24 = phi ptr [ %32, %.lr.ph8 ], [ %9, %.preheader ]
  %.17 = phi i64 [ %30, %.lr.ph8 ], [ 0, %.preheader ]
  %25 = getelementptr inbounds nuw ptr, ptr %24, i64 %.17
  %26 = load ptr, ptr %25, align 8, !tbaa !162
  %27 = load ptr, ptr %26, align 8, !tbaa !14
  %28 = getelementptr inbounds nuw i8, ptr %27, i64 120
  %29 = load ptr, ptr %28, align 8
  tail call void %29(ptr noundef nonnull align 8 dereferenceable(1624) %26)
  %30 = add nuw i64 %.17, 1
  %31 = load ptr, ptr %7, align 8, !tbaa !160
  %32 = load ptr, ptr %6, align 8, !tbaa !164
  %33 = ptrtoint ptr %31 to i64
  %34 = ptrtoint ptr %32 to i64
  %35 = sub i64 %33, %34
  %36 = ashr exact i64 %35, 3
  %37 = icmp ult i64 %30, %36
  br i1 %37, label %.lr.ph8, label %._crit_edge, !llvm.loop !175

._crit_edge:                                      ; preds = %.lr.ph8, %.preheader
  ret void
}